target datalayout = "e-m:e-p270:32:32-p271:32:32-p272:64:64-i64:64-i128:128-f80:128-n8:16:32:64-S128"
target triple = "x86_64-pc-linux-gnu"

%struct.transport = type { ptr, ptr, ptr, ptr, ptr, i8, ptr, i8, ptr, ptr, %struct.string_list, i8, ptr, i32, ptr }
%struct.string_list = type { ptr, i64, i64, i8, ptr }
%struct.string_list_item = type { ptr, ptr }

@.str.7 = private unnamed_addr constant [5 x i8] c"true\00", align 1
@.str.104 = private unnamed_addr constant [8 x i8] c"dry-run\00", align 1
@.str.105 = private unnamed_addr constant [35 x i8] c"helper %s does not support dry-run\00", align 1
@.str.106 = private unnamed_addr constant [9 x i8] c"pushcert\00", align 1
@.str.107 = private unnamed_addr constant [36 x i8] c"helper %s does not support --signed\00", align 1
@.str.108 = private unnamed_addr constant [9 x i8] c"if-asked\00", align 1
@.str.109 = private unnamed_addr constant [45 x i8] c"helper %s does not support --signed=if-asked\00", align 1
@.str.110 = private unnamed_addr constant [7 x i8] c"atomic\00", align 1
@.str.111 = private unnamed_addr constant [36 x i8] c"helper %s does not support --atomic\00", align 1
@.str.112 = private unnamed_addr constant [18 x i8] c"force-if-includes\00", align 1
@.str.113 = private unnamed_addr constant [32 x i8] c"helper %s does not support --%s\00", align 1
@.str.114 = private unnamed_addr constant [12 x i8] c"push-option\00", align 1
@.str.115 = private unnamed_addr constant [41 x i8] c"helper %s does not support 'push-option'\00", align 1

; Function Attrs: nounwind uwtable
define internal void @set_common_push_options(ptr noundef %0, ptr noundef %1, i32 noundef %2) #0 {
  %4 = alloca ptr, align 8
  %5 = alloca ptr, align 8
  %6 = alloca i32, align 4
  %7 = alloca ptr, align 8
  store ptr %0, ptr %4, align 8, !tbaa !4
  store ptr %1, ptr %5, align 8, !tbaa !9
  store i32 %2, ptr %6, align 4, !tbaa !29
  %8 = load i32, ptr %6, align 4, !tbaa !29
  %9 = and i32 %8, 4
  %10 = icmp ne i32 %9, 0
  br i1 %10, label %11, label %19

11:                                               ; preds = %3
  %12 = load ptr, ptr %4, align 8, !tbaa !4
  %13 = call i32 @set_helper_option(ptr noundef %12, ptr noundef @.str.104, ptr noundef @.str.7)
  %14 = icmp ne i32 %13, 0
  br i1 %14, label %15, label %18

15:                                               ; preds = %11
  %16 = call ptr @_(ptr noundef @.str.105)
  %17 = load ptr, ptr %5, align 8, !tbaa !9
  call void (ptr, ...) @die(ptr noundef %16, ptr noundef %17) #13
  unreachable

18:                                               ; preds = %11
  br label %45

19:                                               ; preds = %3
  %20 = load i32, ptr %6, align 4, !tbaa !29
  %21 = and i32 %20, 2048
  %22 = icmp ne i32 %21, 0
  br i1 %22, label %23, label %31

23:                                               ; preds = %19
  %24 = load ptr, ptr %4, align 8, !tbaa !4
  %25 = call i32 @set_helper_option(ptr noundef %24, ptr noundef @.str.106, ptr noundef @.str.7)
  %26 = icmp ne i32 %25, 0
  br i1 %26, label %27, label %30

27:                                               ; preds = %23
  %28 = call ptr @_(ptr noundef @.str.107)
  %29 = load ptr, ptr %5, align 8, !tbaa !9
  call void (ptr, ...) @die(ptr noundef %28, ptr noundef %29) #13
  unreachable

30:                                               ; preds = %23
  br label %44

31:                                               ; preds = %19
  %32 = load i32, ptr %6, align 4, !tbaa !29
  %33 = and i32 %32, 4096
  %34 = icmp ne i32 %33, 0
  br i1 %34, label %35, label %43

35:                                               ; preds = %31
  %36 = load ptr, ptr %4, align 8, !tbaa !4
  %37 = call i32 @set_helper_option(ptr noundef %36, ptr noundef @.str.106, ptr noundef @.str.108)
  %38 = icmp ne i32 %37, 0
  br i1 %38, label %39, label %42

39:                                               ; preds = %35
  %40 = call ptr @_(ptr noundef @.str.109)
  %41 = load ptr, ptr %5, align 8, !tbaa !9
  call void (ptr, ...) @die(ptr noundef %40, ptr noundef %41) #13
  unreachable

42:                                               ; preds = %35
  br label %43

43:                                               ; preds = %42, %31
  br label %44

44:                                               ; preds = %43, %30
  br label %45

45:                                               ; preds = %44, %18
  %46 = load i32, ptr %6, align 4, !tbaa !29
  %47 = and i32 %46, 8192
  %48 = icmp ne i32 %47, 0
  br i1 %48, label %49, label %57

49:                                               ; preds = %45
  %50 = load ptr, ptr %4, align 8, !tbaa !4
  %51 = call i32 @set_helper_option(ptr noundef %50, ptr noundef @.str.110, ptr noundef @.str.7)
  %52 = icmp ne i32 %51, 0
  br i1 %52, label %53, label %56

53:                                               ; preds = %49
  %54 = call ptr @_(ptr noundef @.str.111)
  %55 = load ptr, ptr %5, align 8, !tbaa !9
  call void (ptr, ...) @die(ptr noundef %54, ptr noundef %55) #13
  unreachable

56:                                               ; preds = %49
  br label %57

57:                                               ; preds = %56, %45
  %58 = load i32, ptr %6, align 4, !tbaa !29
  %59 = and i32 %58, 65536
  %60 = icmp ne i32 %59, 0
  br i1 %60, label %61, label %69

61:                                               ; preds = %57
  %62 = load ptr, ptr %4, align 8, !tbaa !4
  %63 = call i32 @set_helper_option(ptr noundef %62, ptr noundef @.str.112, ptr noundef @.str.7)
  %64 = icmp ne i32 %63, 0
  br i1 %64, label %65, label %68

65:                                               ; preds = %61
  %66 = call ptr @_(ptr noundef @.str.113)
  %67 = load ptr, ptr %5, align 8, !tbaa !9
  call void (ptr, ...) @die(ptr noundef %66, ptr noundef %67, ptr noundef @.str.112) #13
  unreachable

68:                                               ; preds = %61
  br label %69

69:                                               ; preds = %68, %57
  %70 = load i32, ptr %6, align 4, !tbaa !29
  %71 = and i32 %70, 16384
  %72 = icmp ne i32 %71, 0
  br i1 %72, label %73, label %113

73:                                               ; preds = %69
  call void @llvm.lifetime.start.p0(i64 8, ptr %7) #12
  %74 = load ptr, ptr %4, align 8, !tbaa !4
  %75 = getelementptr inbounds nuw %struct.transport, ptr %74, i32 0, i32 8
  %76 = load ptr, ptr %75, align 8, !tbaa !133
  %77 = getelementptr inbounds nuw %struct.string_list, ptr %76, i32 0, i32 0
  %78 = load ptr, ptr %77, align 8, !tbaa !110
  store ptr %78, ptr %7, align 8, !tbaa !130
  br label %79

79:                                               ; preds = %109, %73
  %80 = load ptr, ptr %7, align 8, !tbaa !130
  %81 = icmp ne ptr %80, null
  br i1 %81, label %82, label %96

82:                                               ; preds = %79
  %83 = load ptr, ptr %7, align 8, !tbaa !130
  %84 = load ptr, ptr %4, align 8, !tbaa !4
  %85 = getelementptr inbounds nuw %struct.transport, ptr %84, i32 0, i32 8
  %86 = load ptr, ptr %85, align 8, !tbaa !133
  %87 = getelementptr inbounds nuw %struct.string_list, ptr %86, i32 0, i32 0
  %88 = load ptr, ptr %87, align 8, !tbaa !110
  %89 = load ptr, ptr %4, align 8, !tbaa !4
  %90 = getelementptr inbounds nuw %struct.transport, ptr %89, i32 0, i32 8
  %91 = load ptr, ptr %90, align 8, !tbaa !133
  %92 = getelementptr inbounds nuw %struct.string_list, ptr %91, i32 0, i32 1
  %93 = load i64, ptr %92, align 8, !tbaa !109
  %94 = getelementptr inbounds nuw %struct.string_list_item, ptr %88, i64 %93
  %95 = icmp ult ptr %83, %94
  br label %96

96:                                               ; preds = %82, %79
  %97 = phi i1 [ false, %79 ], [ %95, %82 ]
  br i1 %97, label %98, label %112

98:                                               ; preds = %96
  %99 = load ptr, ptr %4, align 8, !tbaa !4
  %100 = load ptr, ptr %7, align 8, !tbaa !130
  %101 = getelementptr inbounds nuw %struct.string_list_item, ptr %100, i32 0, i32 0
  %102 = load ptr, ptr %101, align 8, !tbaa !111
  %103 = call i32 @set_helper_option(ptr noundef %99, ptr noundef @.str.114, ptr noundef %102)
  %104 = icmp ne i32 %103, 0
  br i1 %104, label %105, label %108

105:                                              ; preds = %98
  %106 = call ptr @_(ptr noundef @.str.115)
  %107 = load ptr, ptr %5, align 8, !tbaa !9
  call void (ptr, ...) @die(ptr noundef %106, ptr noundef %107) #13
  unreachable

108:                                              ; preds = %98
  br label %109

109:                                              ; preds = %108
  %110 = load ptr, ptr %7, align 8, !tbaa !130
  %111 = getelementptr inbounds nuw %struct.string_list_item, ptr %110, i32 1
  store ptr %111, ptr %7, align 8, !tbaa !130
  br label %79, !llvm.loop !134

112:                                              ; preds = %96
  call void @llvm.lifetime.end.p0(i64 8, ptr %7) #12
  br label %113

113:                                              ; preds = %112, %69
  ret void
}