; Function Attrs: nounwind uwtable
define internal fastcc void @set_common_push_options(ptr noundef readonly captures(none) %0, ptr noundef %1, i32 noundef %2) unnamed_addr #0 {
  %4 = and i32 %2, 4
  %.not = icmp eq i32 %4, 0
  br i1 %.not, label %9, label %5

5:                                                ; preds = %3
  %6 = tail call i32 @set_helper_option(ptr noundef %0, ptr noundef nonnull @.str.104, ptr noundef nonnull @.str.7)
  %.not28 = icmp eq i32 %6, 0
  br i1 %.not28, label %21, label %7

7:                                                ; preds = %5
  %8 = tail call fastcc ptr @_(ptr noundef nonnull @.str.105)
  tail call void (ptr, ...) @die(ptr noundef %8, ptr noundef %1) #20
  unreachable

9:                                                ; preds = %3
  %10 = and i32 %2, 2048
  %.not24 = icmp eq i32 %10, 0
  br i1 %.not24, label %15, label %11

11:                                               ; preds = %9
  %12 = tail call i32 @set_helper_option(ptr noundef %0, ptr noundef nonnull @.str.106, ptr noundef nonnull @.str.7)
  %.not27 = icmp eq i32 %12, 0
  br i1 %.not27, label %21, label %13

13:                                               ; preds = %11
  %14 = tail call fastcc ptr @_(ptr noundef nonnull @.str.107)
  tail call void (ptr, ...) @die(ptr noundef %14, ptr noundef %1) #20
  unreachable

15:                                               ; preds = %9
  %16 = and i32 %2, 4096
  %.not25 = icmp eq i32 %16, 0
  br i1 %.not25, label %21, label %17

17:                                               ; preds = %15
  %18 = tail call i32 @set_helper_option(ptr noundef %0, ptr noundef nonnull @.str.106, ptr noundef nonnull @.str.108)
  %.not26 = icmp eq i32 %18, 0
  br i1 %.not26, label %21, label %19

19:                                               ; preds = %17
  %20 = tail call fastcc ptr @_(ptr noundef nonnull @.str.109)
  tail call void (ptr, ...) @die(ptr noundef %20, ptr noundef %1) #20
  unreachable

21:                                               ; preds = %11, %17, %15, %5
  %22 = and i32 %2, 8192
  %.not29 = icmp eq i32 %22, 0
  br i1 %.not29, label %27, label %23

23:                                               ; preds = %21
  %24 = tail call i32 @set_helper_option(ptr noundef %0, ptr noundef nonnull @.str.110, ptr noundef nonnull @.str.7)
  %.not30 = icmp eq i32 %24, 0
  br i1 %.not30, label %27, label %25

25:                                               ; preds = %23
  %26 = tail call fastcc ptr @_(ptr noundef nonnull @.str.111)
  tail call void (ptr, ...) @die(ptr noundef %26, ptr noundef %1) #20
  unreachable

27:                                               ; preds = %23, %21
  %28 = and i32 %2, 65536
  %.not31 = icmp eq i32 %28, 0
  br i1 %.not31, label %33, label %29

29:                                               ; preds = %27
  %30 = tail call i32 @set_helper_option(ptr noundef %0, ptr noundef nonnull @.str.112, ptr noundef nonnull @.str.7)
  %.not32 = icmp eq i32 %30, 0
  br i1 %.not32, label %33, label %31

31:                                               ; preds = %29
  %32 = tail call fastcc ptr @_(ptr noundef nonnull @.str.113)
  tail call void (ptr, ...) @die(ptr noundef %32, ptr noundef %1, ptr noundef nonnull @.str.112) #20
  unreachable

33:                                               ; preds = %29, %27
  %34 = and i32 %2, 16384
  %.not33 = icmp eq i32 %34, 0
  br i1 %.not33, label %.critedge, label %35

35:                                               ; preds = %33
  %36 = getelementptr inbounds nuw i8, ptr %0, i64 64
  %37 = load ptr, ptr %36, align 8, !tbaa !115
  %38 = load ptr, ptr %37, align 8, !tbaa !60
  %.not3436 = icmp eq ptr %38, null
  br i1 %.not3436, label %.critedge, label %.lr.ph.preheader

.lr.ph.preheader:                                 ; preds = %35
  %39 = load ptr, ptr %36, align 8, !tbaa !115
  %40 = load ptr, ptr %39, align 8, !tbaa !60
  %41 = getelementptr inbounds nuw i8, ptr %39, i64 8
  %42 = load i64, ptr %41, align 8, !tbaa !59
  %43 = getelementptr inbounds nuw %struct.string_list_item, ptr %40, i64 %42
  %44 = icmp ult ptr %38, %43
  br i1 %44, label %.lr.ph40, label %.critedge

.lr.ph:                                           ; preds = %.lr.ph40
  %45 = getelementptr inbounds nuw i8, ptr %.03739, i64 16
  %46 = load ptr, ptr %36, align 8, !tbaa !115
  %47 = load ptr, ptr %46, align 8, !tbaa !60
  %48 = getelementptr inbounds nuw i8, ptr %46, i64 8
  %49 = load i64, ptr %48, align 8, !tbaa !59
  %50 = getelementptr inbounds nuw %struct.string_list_item, ptr %47, i64 %49
  %51 = icmp ult ptr %45, %50
  br i1 %51, label %.lr.ph40, label %.critedge

.lr.ph40:                                         ; preds = %.lr.ph.preheader, %.lr.ph
  %.03739 = phi ptr [ %45, %.lr.ph ], [ %38, %.lr.ph.preheader ]
  %52 = load ptr, ptr %.03739, align 8, !tbaa !61
  %53 = tail call i32 @set_helper_option(ptr noundef nonnull %0, ptr noundef nonnull @.str.114, ptr noundef %52)
  %.not35 = icmp eq i32 %53, 0
  br i1 %.not35, label %.lr.ph, label %54

54:                                               ; preds = %.lr.ph40
  %55 = tail call fastcc ptr @_(ptr noundef nonnull @.str.115)
  tail call void (ptr, ...) @die(ptr noundef %55, ptr noundef %1) #20
  unreachable

.critedge:                                        ; preds = %.lr.ph, %.lr.ph.preheader, %35, %33
  ret void
}